; Function Attrs: mustprogress nofree norecurse nosync nounwind willreturn memory(write, argmem: readwrite, inaccessiblemem: none) uwtable
define void @php_stream_bucket_prepend(ptr noundef %0, ptr noundef %1) local_unnamed_addr #7 {
  %3 = load ptr, ptr %0, align 8
  store ptr %3, ptr %1, align 8
  %4 = getelementptr inbounds i8, ptr %1, i64 8
  store ptr null, ptr %4, align 8
  %5 = load ptr, ptr %0, align 8
  %.not = icmp eq ptr %5, null
  %. = select i1 %.not, ptr %0, ptr %5
  %6 = getelementptr inbounds i8, ptr %., i64 8
  store ptr %1, ptr %6, align 8
  store ptr %1, ptr %0, align 8
  %7 = getelementptr inbounds i8, ptr %1, i64 16
  store ptr %0, ptr %7, align 8
  ret void
}